; ModuleID = '51/812.c'
source_filename = "51/812.c"
target datalayout = "e-m:e-p270:32:32-p271:32:32-p272:64:64-i64:64-f80:128-n8:16:32:64-S128"
target triple = "x86_64-pc-linux-gnu"

@.str = private unnamed_addr constant [3 x i8] c"%d\00", align 1
@.str.1 = private unnamed_addr constant [3 x i8] c"%s\00", align 1
@.str.2 = private unnamed_addr constant [3 x i8] c"NO\00", align 1
@.str.3 = private unnamed_addr constant [4 x i8] c"%d\0A\00", align 1
@.str.4 = private unnamed_addr constant [4 x i8] c"%s\0A\00", align 1

; Function Attrs: noinline nounwind uwtable
define dso_local void @main() #0 {
  %1 = alloca [400 x i8], align 16
  %2 = alloca [400 x [6 x i8]], align 16
  %3 = alloca i32, align 4
  %4 = alloca i32, align 4
  %5 = alloca i32, align 4
  %6 = alloca i32, align 4
  %7 = alloca i32, align 4
  %8 = alloca i32, align 4
  store i32 0, i32* %5, align 4
  store i32 1, i32* %7, align 4
  store i32 0, i32* %8, align 4
  %9 = call i32 (i8*, ...) @__isoc99_scanf(i8* getelementptr inbounds ([3 x i8], [3 x i8]* @.str, i64 0, i64 0), i32* %3)
  %10 = getelementptr inbounds [400 x i8], [400 x i8]* %1, i64 0, i64 0
  %11 = call i32 (i8*, ...) @__isoc99_scanf(i8* getelementptr inbounds ([3 x i8], [3 x i8]* @.str.1, i64 0, i64 0), i8* %10)
  %12 = getelementptr inbounds [400 x i8], [400 x i8]* %1, i64 0, i64 0
  %13 = call i64 @strlen(i8* %12) #3
  %14 = trunc i64 %13 to i32
  store i32 %14, i32* %6, align 4
  store i32 0, i32* %4, align 4
  br label %15

15:                                               ; preds = %50, %0
  %16 = load i32, i32* %4, align 4
  %17 = load i32, i32* %6, align 4
  %18 = load i32, i32* %3, align 4
  %19 = sub nsw i32 %17, %18
  %20 = add nsw i32 %19, 1
  %21 = icmp slt i32 %16, %20
  br i1 %21, label %22, label %53

22:                                               ; preds = %15
  store i32 0, i32* %5, align 4
  br label %23

23:                                               ; preds = %40, %22
  %24 = load i32, i32* %5, align 4
  %25 = load i32, i32* %3, align 4
  %26 = icmp slt i32 %24, %25
  br i1 %26, label %27, label %43

27:                                               ; preds = %23
  %28 = load i32, i32* %4, align 4
  %29 = load i32, i32* %5, align 4
  %30 = add nsw i32 %28, %29
  %31 = sext i32 %30 to i64
  %32 = getelementptr inbounds [400 x i8], [400 x i8]* %1, i64 0, i64 %31
  %33 = load i8, i8* %32, align 1
  %34 = load i32, i32* %4, align 4
  %35 = sext i32 %34 to i64
  %36 = getelementptr inbounds [400 x [6 x i8]], [400 x [6 x i8]]* %2, i64 0, i64 %35
  %37 = load i32, i32* %5, align 4
  %38 = sext i32 %37 to i64
  %39 = getelementptr inbounds [6 x i8], [6 x i8]* %36, i64 0, i64 %38
  store i8 %33, i8* %39, align 1
  br label %40

40:                                               ; preds = %27
  %41 = load i32, i32* %5, align 4
  %42 = add nsw i32 %41, 1
  store i32 %42, i32* %5, align 4
  br label %23

43:                                               ; preds = %23
  %44 = load i32, i32* %4, align 4
  %45 = sext i32 %44 to i64
  %46 = getelementptr inbounds [400 x [6 x i8]], [400 x [6 x i8]]* %2, i64 0, i64 %45
  %47 = load i32, i32* %5, align 4
  %48 = sext i32 %47 to i64
  %49 = getelementptr inbounds [6 x i8], [6 x i8]* %46, i64 0, i64 %48
  store i8 0, i8* %49, align 1
  br label %50

50:                                               ; preds = %43
  %51 = load i32, i32* %4, align 4
  %52 = add nsw i32 %51, 1
  store i32 %52, i32* %4, align 4
  br label %15

53:                                               ; preds = %15
  store i32 0, i32* %5, align 4
  br label %54

54:                                               ; preds = %94, %53
  %55 = load i32, i32* %5, align 4
  %56 = load i32, i32* %6, align 4
  %57 = load i32, i32* %3, align 4
  %58 = sub nsw i32 %56, %57
  %59 = icmp slt i32 %55, %58
  br i1 %59, label %60, label %97

60:                                               ; preds = %54
  store i32 0, i32* %7, align 4
  %61 = load i32, i32* %5, align 4
  store i32 %61, i32* %4, align 4
  br label %62

62:                                               ; preds = %84, %60
  %63 = load i32, i32* %4, align 4
  %64 = load i32, i32* %6, align 4
  %65 = load i32, i32* %3, align 4
  %66 = sub nsw i32 %64, %65
  %67 = add nsw i32 %66, 1
  %68 = icmp slt i32 %63, %67
  br i1 %68, label %69, label %87

69:                                               ; preds = %62
  %70 = load i32, i32* %5, align 4
  %71 = sext i32 %70 to i64
  %72 = getelementptr inbounds [400 x [6 x i8]], [400 x [6 x i8]]* %2, i64 0, i64 %71
  %73 = getelementptr inbounds [6 x i8], [6 x i8]* %72, i64 0, i64 0
  %74 = load i32, i32* %4, align 4
  %75 = sext i32 %74 to i64
  %76 = getelementptr inbounds [400 x [6 x i8]], [400 x [6 x i8]]* %2, i64 0, i64 %75
  %77 = getelementptr inbounds [6 x i8], [6 x i8]* %76, i64 0, i64 0
  %78 = call i32 @strcmp(i8* %73, i8* %77) #3
  %79 = icmp eq i32 %78, 0
  br i1 %79, label %80, label %83

80:                                               ; preds = %69
  %81 = load i32, i32* %7, align 4
  %82 = add nsw i32 %81, 1
  store i32 %82, i32* %7, align 4
  br label %83

83:                                               ; preds = %80, %69
  br label %84

84:                                               ; preds = %83
  %85 = load i32, i32* %4, align 4
  %86 = add nsw i32 %85, 1
  store i32 %86, i32* %4, align 4
  br label %62

87:                                               ; preds = %62
  %88 = load i32, i32* %7, align 4
  %89 = load i32, i32* %8, align 4
  %90 = icmp sgt i32 %88, %89
  br i1 %90, label %91, label %93

91:                                               ; preds = %87
  %92 = load i32, i32* %7, align 4
  store i32 %92, i32* %8, align 4
  br label %93

93:                                               ; preds = %91, %87
  br label %94

94:                                               ; preds = %93
  %95 = load i32, i32* %5, align 4
  %96 = add nsw i32 %95, 1
  store i32 %96, i32* %5, align 4
  br label %54

97:                                               ; preds = %54
  %98 = load i32, i32* %8, align 4
  %99 = icmp eq i32 %98, 1
  br i1 %99, label %100, label %102

100:                                              ; preds = %97
  %101 = call i32 (i8*, ...) @printf(i8* getelementptr inbounds ([3 x i8], [3 x i8]* @.str.2, i64 0, i64 0))
  br label %153

102:                                              ; preds = %97
  %103 = load i32, i32* %8, align 4
  %104 = call i32 (i8*, ...) @printf(i8* getelementptr inbounds ([4 x i8], [4 x i8]* @.str.3, i64 0, i64 0), i32 %103)
  store i32 0, i32* %5, align 4
  br label %105

105:                                              ; preds = %149, %102
  %106 = load i32, i32* %5, align 4
  %107 = load i32, i32* %6, align 4
  %108 = load i32, i32* %3, align 4
  %109 = sub nsw i32 %107, %108
  %110 = icmp slt i32 %106, %109
  br i1 %110, label %111, label %152

111:                                              ; preds = %105
  store i32 0, i32* %7, align 4
  %112 = load i32, i32* %5, align 4
  store i32 %112, i32* %4, align 4
  br label %113

113:                                              ; preds = %135, %111
  %114 = load i32, i32* %4, align 4
  %115 = load i32, i32* %6, align 4
  %116 = load i32, i32* %3, align 4
  %117 = sub nsw i32 %115, %116
  %118 = add nsw i32 %117, 1
  %119 = icmp slt i32 %114, %118
  br i1 %119, label %120, label %138

120:                                              ; preds = %113
  %121 = load i32, i32* %5, align 4
  %122 = sext i32 %121 to i64
  %123 = getelementptr inbounds [400 x [6 x i8]], [400 x [6 x i8]]* %2, i64 0, i64 %122
  %124 = getelementptr inbounds [6 x i8], [6 x i8]* %123, i64 0, i64 0
  %125 = load i32, i32* %4, align 4
  %126 = sext i32 %125 to i64
  %127 = getelementptr inbounds [400 x [6 x i8]], [400 x [6 x i8]]* %2, i64 0, i64 %126
  %128 = getelementptr inbounds [6 x i8], [6 x i8]* %127, i64 0, i64 0
  %129 = call i32 @strcmp(i8* %124, i8* %128) #3
  %130 = icmp eq i32 %129, 0
  br i1 %130, label %131, label %134

131:                                              ; preds = %120
  %132 = load i32, i32* %7, align 4
  %133 = add nsw i32 %132, 1
  store i32 %133, i32* %7, align 4
  br label %134

134:                                              ; preds = %131, %120
  br label %135

135:                                              ; preds = %134
  %136 = load i32, i32* %4, align 4
  %137 = add nsw i32 %136, 1
  store i32 %137, i32* %4, align 4
  br label %113

138:                                              ; preds = %113
  %139 = load i32, i32* %7, align 4
  %140 = load i32, i32* %8, align 4
  %141 = icmp eq i32 %139, %140
  br i1 %141, label %142, label %148

142:                                              ; preds = %138
  %143 = load i32, i32* %5, align 4
  %144 = sext i32 %143 to i64
  %145 = getelementptr inbounds [400 x [6 x i8]], [400 x [6 x i8]]* %2, i64 0, i64 %144
  %146 = getelementptr inbounds [6 x i8], [6 x i8]* %145, i64 0, i64 0
  %147 = call i32 (i8*, ...) @printf(i8* getelementptr inbounds ([4 x i8], [4 x i8]* @.str.4, i64 0, i64 0), i8* %146)
  br label %148

148:                                              ; preds = %142, %138
  br label %149

149:                                              ; preds = %148
  %150 = load i32, i32* %5, align 4
  %151 = add nsw i32 %150, 1
  store i32 %151, i32* %5, align 4
  br label %105

152:                                              ; preds = %105
  br label %153

153:                                              ; preds = %152, %100
  ret void
}

declare dso_local i32 @__isoc99_scanf(i8*, ...) #1

; Function Attrs: nounwind readonly
declare dso_local i64 @strlen(i8*) #2

; Function Attrs: nounwind readonly
declare dso_local i32 @strcmp(i8*, i8*) #2

declare dso_local i32 @printf(i8*, ...) #1


!llvm.module.flags = !{!0}
!llvm.ident = !{!1}

!0 = !{i32 1, !"wchar_size", i32 4}
!1 = !{!"clang version 10.0.0-4ubuntu1 "}
